; Function Attrs: mustprogress uwtable
define hidden void @_ZN4cvc58internal13preprocessing4util13ITESimplifier22attemptConstantRemovalENS0_12NodeTemplateILb0EEE(ptr dead_on_unwind noalias writable sret(%"class.cvc5::internal::NodeTemplate") align 8 %0, ptr noundef nonnull align 8 dereferenceable(712) %1, ptr noundef readonly captures(none) %2) local_unnamed_addr #3 align 2 personality ptr @__gxx_personality_v0 {
  %4 = alloca %"class.cvc5::internal::NodeTemplate.375", align 8
  %5 = alloca %"class.cvc5::internal::NodeTemplate.375", align 8
  %6 = alloca %"class.cvc5::internal::NodeTemplate.375", align 8
  %7 = alloca %"class.cvc5::internal::NodeTemplate.375", align 8
  %8 = load ptr, ptr %2, align 8, !tbaa !36
  %9 = getelementptr inbounds nuw i8, ptr %8, i64 8
  %10 = load i64, ptr %9, align 8
  %11 = and i64 %10, 1023
  %12 = icmp eq i64 %11, 5
  br i1 %12, label %13, label %.thread18

13:                                               ; preds = %3
  %14 = tail call noundef i32 @_ZN4cvc58internal4kind10metaKindOfENS1_6Kind_tE(i32 noundef 5), !noalias !748
  %15 = icmp eq i32 %14, 2
  %16 = getelementptr inbounds nuw i8, ptr %8, i64 24
  %17 = zext i1 %15 to i64
  %18 = getelementptr inbounds nuw [0 x ptr], ptr %16, i64 0, i64 %17
  %19 = load ptr, ptr %18, align 8, !tbaa !88, !noalias !748
  %20 = load ptr, ptr %2, align 8, !tbaa !36, !noalias !751
  %21 = getelementptr inbounds nuw i8, ptr %20, i64 8
  %22 = load i64, ptr %21, align 8, !noalias !751
  %23 = trunc i64 %22 to i32
  %24 = and i32 %23, 1023
  %25 = icmp eq i32 %24, 1023
  %26 = select i1 %25, i32 -1, i32 %24
  %27 = tail call noundef i32 @_ZN4cvc58internal4kind10metaKindOfENS1_6Kind_tE(i32 noundef %26)
  %28 = icmp eq i32 %27, 2
  %spec.select.i.i = select i1 %28, i64 2, i64 1
  %29 = getelementptr inbounds nuw i8, ptr %20, i64 24
  %30 = getelementptr inbounds nuw [0 x ptr], ptr %29, i64 0, i64 %spec.select.i.i
  %31 = load ptr, ptr %30, align 8, !tbaa !88, !noalias !751
  store ptr %19, ptr %4, align 8, !tbaa !36
  %32 = call noundef zeroext i1 @_ZN4cvc58internal13preprocessing4util13ITESimplifier13isConstantIteENS0_12NodeTemplateILb0EEE(ptr noundef nonnull align 8 dereferenceable(712) %1, ptr noundef nonnull %4)
  br i1 %32, label %33, label %.thread18

33:                                               ; preds = %13
  store ptr %31, ptr %5, align 8, !tbaa !36
  %34 = call noundef zeroext i1 @_ZN4cvc58internal13preprocessing4util13ITESimplifier13isConstantIteENS0_12NodeTemplateILb0EEE(ptr noundef nonnull align 8 dereferenceable(712) %1, ptr noundef nonnull %5)
  br i1 %34, label %35, label %.thread18

35:                                               ; preds = %33
  store ptr %19, ptr %6, align 8, !tbaa !36
  store ptr %31, ptr %7, align 8, !tbaa !36
  call void @_ZN4cvc58internal13preprocessing4util13ITESimplifier20intersectConstantIteENS0_12NodeTemplateILb0EEES5_(ptr dead_on_unwind writable sret(%"class.cvc5::internal::NodeTemplate") align 8 %0, ptr noundef nonnull align 8 dereferenceable(712) %1, ptr noundef nonnull %6, ptr noundef nonnull %7)
  br label %_ZN4cvc58internal12NodeTemplateILb1EE4nullEv.exit

.thread18:                                        ; preds = %13, %33, %3
  call void @llvm.experimental.noalias.scope.decl(metadata !754)
  %36 = load ptr, ptr @_ZN4cvc58internal12NodeTemplateILb1EE6s_nullE, align 8, !tbaa !69, !noalias !754
  store ptr %36, ptr %0, align 8, !tbaa !69, !alias.scope !754
  %37 = load i64, ptr %36, align 8, !noalias !754
  %38 = lshr i64 %37, 40
  %39 = trunc nuw nsw i64 %38 to i32
  %40 = and i32 %39, 1048575
  %41 = icmp samesign ult i32 %40, 1048574
  br i1 %41, label %42, label %47, !prof !70

42:                                               ; preds = %.thread18
  %43 = add i64 %37, 1099511627776
  %44 = and i64 %43, 1152920405095219200
  %45 = and i64 %37, -1152920405095219201
  %46 = or disjoint i64 %44, %45
  store i64 %46, ptr %36, align 8, !noalias !754
  br label %_ZN4cvc58internal12NodeTemplateILb1EE4nullEv.exit

47:                                               ; preds = %.thread18
  %48 = icmp eq i32 %40, 1048574
  br i1 %48, label %49, label %_ZN4cvc58internal12NodeTemplateILb1EE4nullEv.exit, !prof !71

49:                                               ; preds = %47
  %50 = or i64 %37, 1152920405095219200
  store i64 %50, ptr %36, align 8, !noalias !754
  call void @_ZN4cvc58internal4expr9NodeValue20markRefCountMaxedOutEv(ptr noundef nonnull align 8 dereferenceable(24) %36), !noalias !754
  br label %_ZN4cvc58internal12NodeTemplateILb1EE4nullEv.exit

_ZN4cvc58internal12NodeTemplateILb1EE4nullEv.exit: ; preds = %35, %49, %47, %42
  ret void
}